target datalayout = "e-m:e-p270:32:32-p271:32:32-p272:64:64-i64:64-i128:128-f80:128-n8:16:32:64-S128"
target triple = "x86_64-pc-linux-gnu"

%"class.std::__cxx11::basic_string" = type { %"struct.std::__cxx11::basic_string<char>::_Alloc_hider", i64, %union.anon }
%"struct.std::__cxx11::basic_string<char>::_Alloc_hider" = type { ptr }
%union.anon = type { i64, [8 x i8] }
%"class.std::allocator" = type { i8 }
%"class.boost::basic_format" = type { %"class.std::vector", %"class.std::vector.24", i32, i32, i32, i8, %"class.std::__cxx11::basic_string", i8, [7 x i8], %"class.boost::io::basic_altstringbuf", %"class.boost::optional" }
%"class.std::vector" = type { %"struct.std::_Vector_base" }
%"struct.std::_Vector_base" = type { %"struct.std::_Vector_base<boost::io::detail::format_item<char, std::char_traits<char>, std::allocator<char>>, std::allocator<boost::io::detail::format_item<char, std::char_traits<char>, std::allocator<char>>>>::_Vector_impl" }
%"struct.std::_Vector_base<boost::io::detail::format_item<char, std::char_traits<char>, std::allocator<char>>, std::allocator<boost::io::detail::format_item<char, std::char_traits<char>, std::allocator<char>>>>::_Vector_impl" = type { %"struct.std::_Vector_base<boost::io::detail::format_item<char, std::char_traits<char>, std::allocator<char>>, std::allocator<boost::io::detail::format_item<char, std::char_traits<char>, std::allocator<char>>>>::_Vector_impl_data" }
%"struct.std::_Vector_base<boost::io::detail::format_item<char, std::char_traits<char>, std::allocator<char>>, std::allocator<boost::io::detail::format_item<char, std::char_traits<char>, std::allocator<char>>>>::_Vector_impl_data" = type { ptr, ptr, ptr }
%"class.std::vector.24" = type { %"struct.std::_Bvector_base" }
%"struct.std::_Bvector_base" = type { %"struct.std::_Bvector_base<std::allocator<bool>>::_Bvector_impl" }
%"struct.std::_Bvector_base<std::allocator<bool>>::_Bvector_impl" = type { %"struct.std::_Bvector_base<std::allocator<bool>>::_Bvector_impl_data" }
%"struct.std::_Bvector_base<std::allocator<bool>>::_Bvector_impl_data" = type { %"struct.std::_Bit_iterator", %"struct.std::_Bit_iterator", ptr }
%"struct.std::_Bit_iterator" = type { %"struct.std::_Bit_iterator_base.base", [4 x i8] }
%"struct.std::_Bit_iterator_base.base" = type <{ ptr, i32 }>
%"class.boost::io::basic_altstringbuf" = type <{ %"class.std::basic_streambuf", ptr, i8, [3 x i8], i32, %"class.std::allocator", [7 x i8] }>
%"class.std::basic_streambuf" = type { ptr, ptr, ptr, ptr, ptr, ptr, ptr, %"class.std::locale" }
%"class.std::locale" = type { ptr }
%"class.boost::optional" = type { %"class.boost::optional_detail::optional_base" }
%"class.boost::optional_detail::optional_base" = type { i8, [7 x i8], %"class.boost::optional_detail::aligned_storage" }
%"class.boost::optional_detail::aligned_storage" = type { %"union.boost::optional_detail::aligned_storage<std::locale>::dummy_u" }
%"union.boost::optional_detail::aligned_storage<std::locale>::dummy_u" = type { [8 x i8] }

@.str.46 = private unnamed_addr constant [16 x i8] c"%1%.old-%2%-%3%\00", align 1

; Function Attrs: mustprogress nounwind uwtable
define linkonce_odr noundef zeroext i8 @_ZN5boost12basic_formatIcSt11char_traitsIcESaIcEE10exceptionsEh(ptr noundef nonnull align 8 dereferenceable(224) %0, i8 noundef zeroext %1) #2 comdat align 2 {
  %3 = alloca ptr, align 8
  %4 = alloca i8, align 1
  %5 = alloca i8, align 1
  store ptr %0, ptr %3, align 8
  store i8 %1, ptr %4, align 1
  %6 = load ptr, ptr %3, align 8
  %7 = getelementptr inbounds %"class.boost::basic_format", ptr %6, i32 0, i32 7
  %8 = load i8, ptr %7, align 8
  store i8 %8, ptr %5, align 1
  %9 = load i8, ptr %4, align 1
  %10 = getelementptr inbounds %"class.boost::basic_format", ptr %6, i32 0, i32 7
  store i8 %9, ptr %10, align 8
  %11 = load i8, ptr %5, align 1
  ret i8 %11
}

; Function Attrs: mustprogress uwtable
define linkonce_odr void @_ZN3nix13setExceptionsERN5boost12basic_formatIcSt11char_traitsIcESaIcEEE(ptr noundef nonnull align 8 dereferenceable(224) %0) #5 comdat {
  %2 = alloca ptr, align 8
  store ptr %0, ptr %2, align 8
  %3 = load ptr, ptr %2, align 8
  %4 = call noundef zeroext i8 @_ZN5boost12basic_formatIcSt11char_traitsIcESaIcEE10exceptionsEh(ptr noundef nonnull align 8 dereferenceable(224) %3, i8 noundef zeroext -7)
  ret void
}

; Function Attrs: mustprogress uwtable
define linkonce_odr void @_ZN3nix3fmtIJNSt7__cxx1112basic_stringIcSt11char_traitsIcESaIcEEEilEEES6_RKS6_DpRKT_(ptr dead_on_unwind noalias writable sret(%"class.std::__cxx11::basic_string") align 8 %0, ptr noundef nonnull align 8 dereferenceable(32) %1, ptr noundef nonnull align 8 dereferenceable(32) %2, ptr noundef nonnull align 4 dereferenceable(4) %3, ptr noundef nonnull align 8 dereferenceable(8) %4) #5 comdat personality ptr @__gxx_personality_v0 {
  %6 = alloca ptr, align 8
  %7 = alloca ptr, align 8
  %8 = alloca ptr, align 8
  %9 = alloca ptr, align 8
  %10 = alloca ptr, align 8
  %11 = alloca %"class.boost::basic_format", align 8
  %12 = alloca ptr, align 8
  %13 = alloca i32, align 4
  store ptr %0, ptr %6, align 8
  store ptr %1, ptr %7, align 8
  store ptr %2, ptr %8, align 8
  store ptr %3, ptr %9, align 8
  store ptr %4, ptr %10, align 8
  %14 = load ptr, ptr %7, align 8
  call void @_ZN5boost12basic_formatIcSt11char_traitsIcESaIcEEC2ERKNSt7__cxx1112basic_stringIcS2_S3_EE(ptr noundef nonnull align 8 dereferenceable(224) %11, ptr noundef nonnull align 8 dereferenceable(32) %14)
  invoke void @_ZN3nix13setExceptionsERN5boost12basic_formatIcSt11char_traitsIcESaIcEEE(ptr noundef nonnull align 8 dereferenceable(224) %11)
          to label %15 unwind label %21

15:                                               ; preds = %5
  %16 = load ptr, ptr %8, align 8
  %17 = load ptr, ptr %9, align 8
  %18 = load ptr, ptr %10, align 8
  invoke void @_ZN3nix12formatHelperIN5boost12basic_formatIcSt11char_traitsIcESaIcEEENSt7__cxx1112basic_stringIcS4_S5_EEJilEEEvRT_RKT0_DpRKT1_(ptr noundef nonnull align 8 dereferenceable(224) %11, ptr noundef nonnull align 8 dereferenceable(32) %16, ptr noundef nonnull align 4 dereferenceable(4) %17, ptr noundef nonnull align 8 dereferenceable(8) %18)
          to label %19 unwind label %21

19:                                               ; preds = %15
  invoke void @_ZNK5boost12basic_formatIcSt11char_traitsIcESaIcEE3strB5cxx11Ev(ptr dead_on_unwind writable sret(%"class.std::__cxx11::basic_string") align 8 %0, ptr noundef nonnull align 8 dereferenceable(224) %11)
          to label %20 unwind label %21

20:                                               ; preds = %19
  call void @_ZN5boost12basic_formatIcSt11char_traitsIcESaIcEED2Ev(ptr noundef nonnull align 8 dereferenceable(224) %11) #1
  ret void

21:                                               ; preds = %19, %15, %5
  %22 = landingpad { ptr, i32 }
          cleanup
  %23 = extractvalue { ptr, i32 } %22, 0
  store ptr %23, ptr %12, align 8
  %24 = extractvalue { ptr, i32 } %22, 1
  store i32 %24, ptr %13, align 4
  call void @_ZN5boost12basic_formatIcSt11char_traitsIcESaIcEED2Ev(ptr noundef nonnull align 8 dereferenceable(224) %11) #1
  br label %25

25:                                               ; preds = %21
  %26 = load ptr, ptr %12, align 8
  %27 = load i32, ptr %13, align 4
  %28 = insertvalue { ptr, i32 } poison, ptr %26, 0
  %29 = insertvalue { ptr, i32 } %28, i32 %27, 1
  resume { ptr, i32 } %29
}

; Function Attrs: mustprogress uwtable
define void @_ZN3nix16replaceValidPathERKNSt7__cxx1112basic_stringIcSt11char_traitsIcESaIcEEES7_(ptr noundef nonnull align 8 dereferenceable(32) %0, ptr noundef nonnull align 8 dereferenceable(32) %1) #5 personality ptr @__gxx_personality_v0 {
  %3 = alloca ptr, align 8
  %4 = alloca ptr, align 8
  %5 = alloca %"class.std::__cxx11::basic_string", align 8
  %6 = alloca %"class.std::__cxx11::basic_string", align 8
  %7 = alloca %"class.std::allocator", align 1
  %8 = alloca ptr, align 8
  %9 = alloca i32, align 4
  %10 = alloca i32, align 4
  %11 = alloca i64, align 8
  store ptr %0, ptr %3, align 8
  store ptr %1, ptr %4, align 8
  call void @_ZNSaIcEC1Ev(ptr noundef nonnull align 1 dereferenceable(1) %7) #1
  invoke void @_ZNSt7__cxx1112basic_stringIcSt11char_traitsIcESaIcEEC2IS3_EEPKcRKS3_(ptr noundef nonnull align 8 dereferenceable(32) %6, ptr noundef @.str.46, ptr noundef nonnull align 1 dereferenceable(1) %7)
          to label %12 unwind label %23

12:                                               ; preds = %2
  %13 = load ptr, ptr %3, align 8
  %14 = call i32 @getpid() #1
  store i32 %14, ptr %10, align 4
  %15 = call i64 @random() #1
  store i64 %15, ptr %11, align 8
  invoke void @_ZN3nix3fmtIJNSt7__cxx1112basic_stringIcSt11char_traitsIcESaIcEEEilEEES6_RKS6_DpRKT_(ptr dead_on_unwind writable sret(%"class.std::__cxx11::basic_string") align 8 %5, ptr noundef nonnull align 8 dereferenceable(32) %6, ptr noundef nonnull align 8 dereferenceable(32) %13, ptr noundef nonnull align 4 dereferenceable(4) %10, ptr noundef nonnull align 8 dereferenceable(8) %11)
          to label %16 unwind label %27

16:                                               ; preds = %12
  call void @_ZNSt7__cxx1112basic_stringIcSt11char_traitsIcESaIcEED2Ev(ptr noundef nonnull align 8 dereferenceable(32) %6) #1
  call void @_ZNSaIcED1Ev(ptr noundef nonnull align 1 dereferenceable(1) %7) #1
  %17 = load ptr, ptr %3, align 8
  %18 = invoke noundef zeroext i1 @_ZN3nix10pathExistsERKNSt7__cxx1112basic_stringIcSt11char_traitsIcESaIcEEE(ptr noundef nonnull align 8 dereferenceable(32) %17)
          to label %19 unwind label %32

19:                                               ; preds = %16
  br i1 %18, label %20, label %36

20:                                               ; preds = %19
  %21 = load ptr, ptr %3, align 8
  invoke void @_ZN3nixL8movePathERKNSt7__cxx1112basic_stringIcSt11char_traitsIcESaIcEEES7_(ptr noundef nonnull align 8 dereferenceable(32) %21, ptr noundef nonnull align 8 dereferenceable(32) %5)
          to label %22 unwind label %32

22:                                               ; preds = %20
  br label %36

23:                                               ; preds = %2
  %24 = landingpad { ptr, i32 }
          cleanup
  %25 = extractvalue { ptr, i32 } %24, 0
  store ptr %25, ptr %8, align 8
  %26 = extractvalue { ptr, i32 } %24, 1
  store i32 %26, ptr %9, align 4
  br label %31

27:                                               ; preds = %12
  %28 = landingpad { ptr, i32 }
          cleanup
  %29 = extractvalue { ptr, i32 } %28, 0
  store ptr %29, ptr %8, align 8
  %30 = extractvalue { ptr, i32 } %28, 1
  store i32 %30, ptr %9, align 4
  call void @_ZNSt7__cxx1112basic_stringIcSt11char_traitsIcESaIcEED2Ev(ptr noundef nonnull align 8 dereferenceable(32) %6) #1
  br label %31

31:                                               ; preds = %27, %23
  call void @_ZNSaIcED1Ev(ptr noundef nonnull align 1 dereferenceable(1) %7) #1
  br label %73

32:                                               ; preds = %70, %20, %16
  %33 = landingpad { ptr, i32 }
          cleanup
  %34 = extractvalue { ptr, i32 } %33, 0
  store ptr %34, ptr %8, align 8
  %35 = extractvalue { ptr, i32 } %33, 1
  store i32 %35, ptr %9, align 4
  br label %72

36:                                               ; preds = %22, %19
  %37 = load ptr, ptr %4, align 8
  %38 = load ptr, ptr %3, align 8
  invoke void @_ZN3nixL8movePathERKNSt7__cxx1112basic_stringIcSt11char_traitsIcESaIcEEES7_(ptr noundef nonnull align 8 dereferenceable(32) %37, ptr noundef nonnull align 8 dereferenceable(32) %38)
          to label %39 unwind label %40

39:                                               ; preds = %36
  br label %70

40:                                               ; preds = %36
  %41 = landingpad { ptr, i32 }
          catch ptr null
  %42 = extractvalue { ptr, i32 } %41, 0
  store ptr %42, ptr %8, align 8
  %43 = extractvalue { ptr, i32 } %41, 1
  store i32 %43, ptr %9, align 4
  br label %44

44:                                               ; preds = %40
  %45 = load ptr, ptr %8, align 8
  %46 = call ptr @__cxa_begin_catch(ptr %45) #1
  %47 = load ptr, ptr %3, align 8
  invoke void @_ZN3nixL8movePathERKNSt7__cxx1112basic_stringIcSt11char_traitsIcESaIcEEES7_(ptr noundef nonnull align 8 dereferenceable(32) %5, ptr noundef nonnull align 8 dereferenceable(32) %47)
          to label %48 unwind label %49

48:                                               ; preds = %44
  br label %58

49:                                               ; preds = %44
  %50 = landingpad { ptr, i32 }
          catch ptr null
  %51 = extractvalue { ptr, i32 } %50, 0
  store ptr %51, ptr %8, align 8
  %52 = extractvalue { ptr, i32 } %50, 1
  store i32 %52, ptr %9, align 4
  br label %53

53:                                               ; preds = %49
  %54 = load ptr, ptr %8, align 8
  %55 = call ptr @__cxa_begin_catch(ptr %54) #1
  invoke void @_ZN3nix15ignoreExceptionENS_9VerbosityE(i32 noundef 0)
          to label %56 unwind label %59

56:                                               ; preds = %53
  invoke void @__cxa_end_catch()
          to label %57 unwind label %63

57:                                               ; preds = %56
  br label %58

58:                                               ; preds = %57, %48
  invoke void @__cxa_rethrow() #22
          to label %81 unwind label %63

59:                                               ; preds = %53
  %60 = landingpad { ptr, i32 }
          cleanup
  %61 = extractvalue { ptr, i32 } %60, 0
  store ptr %61, ptr %8, align 8
  %62 = extractvalue { ptr, i32 } %60, 1
  store i32 %62, ptr %9, align 4
  invoke void @__cxa_end_catch()
          to label %67 unwind label %78

63:                                               ; preds = %58, %56
  %64 = landingpad { ptr, i32 }
          cleanup
  %65 = extractvalue { ptr, i32 } %64, 0
  store ptr %65, ptr %8, align 8
  %66 = extractvalue { ptr, i32 } %64, 1
  store i32 %66, ptr %9, align 4
  br label %68

67:                                               ; preds = %59
  br label %68

68:                                               ; preds = %67, %63
  invoke void @__cxa_end_catch()
          to label %69 unwind label %78

69:                                               ; preds = %68
  br label %72

70:                                               ; preds = %39
  invoke void @_ZN3nix10deletePathERKNSt7__cxx1112basic_stringIcSt11char_traitsIcESaIcEEE(ptr noundef nonnull align 8 dereferenceable(32) %5)
          to label %71 unwind label %32

71:                                               ; preds = %70
  call void @_ZNSt7__cxx1112basic_stringIcSt11char_traitsIcESaIcEED2Ev(ptr noundef nonnull align 8 dereferenceable(32) %5) #1
  ret void

72:                                               ; preds = %69, %32
  call void @_ZNSt7__cxx1112basic_stringIcSt11char_traitsIcESaIcEED2Ev(ptr noundef nonnull align 8 dereferenceable(32) %5) #1
  br label %73

73:                                               ; preds = %72, %31
  %74 = load ptr, ptr %8, align 8
  %75 = load i32, ptr %9, align 4
  %76 = insertvalue { ptr, i32 } poison, ptr %74, 0
  %77 = insertvalue { ptr, i32 } %76, i32 %75, 1
  resume { ptr, i32 } %77

78:                                               ; preds = %68, %59
  %79 = landingpad { ptr, i32 }
          catch ptr null
  %80 = extractvalue { ptr, i32 } %79, 0
  call void @__clang_call_terminate(ptr %80) #23
  unreachable

81:                                               ; preds = %58
  unreachable
}