; Function Attrs: mustprogress uwtable
define void @_ZN3nix16replaceValidPathERKNSt7__cxx1112basic_stringIcSt11char_traitsIcESaIcEEES7_(ptr noundef nonnull align 8 dereferenceable(32) %0, ptr noundef nonnull align 8 dereferenceable(32) %1) local_unnamed_addr #5 personality ptr @__gxx_personality_v0 {
  %3 = alloca %"class.boost::basic_format", align 8
  %4 = alloca %"class.std::__cxx11::basic_string", align 8
  %5 = alloca %"class.std::__cxx11::basic_string", align 8
  %6 = alloca %"class.std::allocator", align 1
  %7 = alloca i32, align 4
  %8 = alloca i64, align 8
  call void @_ZNSaIcEC1Ev(ptr noundef nonnull align 1 dereferenceable(1) %6) #30
  invoke void @_ZNSt7__cxx1112basic_stringIcSt11char_traitsIcESaIcEEC2IS3_EEPKcRKS3_(ptr noundef nonnull align 8 dereferenceable(32) %5, ptr noundef nonnull @.str.46, ptr noundef nonnull align 1 dereferenceable(1) %6)
          to label %9 unwind label %26

9:                                                ; preds = %2
  %10 = call i32 @getpid() #30
  store i32 %10, ptr %7, align 4
  %11 = call i64 @random() #30
  store i64 %11, ptr %8, align 8
  call void @llvm.lifetime.start.p0(i64 224, ptr nonnull %3)
  invoke void @_ZN5boost12basic_formatIcSt11char_traitsIcESaIcEEC2ERKNSt7__cxx1112basic_stringIcS2_S3_EE(ptr noundef nonnull align 8 dereferenceable(224) %3, ptr noundef nonnull align 8 dereferenceable(32) %5)
          to label %.noexc unwind label %28

.noexc:                                           ; preds = %9
  %12 = getelementptr inbounds i8, ptr %3, i64 112
  store i8 -7, ptr %12, align 8, !noalias !149
  invoke void @_ZN3nix12formatHelperIN5boost12basic_formatIcSt11char_traitsIcESaIcEEENSt7__cxx1112basic_stringIcS4_S5_EEJilEEEvRT_RKT0_DpRKT1_(ptr noundef nonnull align 8 dereferenceable(224) %3, ptr noundef nonnull align 8 dereferenceable(32) %0, ptr noundef nonnull align 4 dereferenceable(4) %7, ptr noundef nonnull align 8 dereferenceable(8) %8)
          to label %13 unwind label %14, !noalias !149

13:                                               ; preds = %.noexc
  invoke void @_ZNK5boost12basic_formatIcSt11char_traitsIcESaIcEE3strB5cxx11Ev(ptr dead_on_unwind nonnull writable sret(%"class.std::__cxx11::basic_string") align 8 %4, ptr noundef nonnull align 8 dereferenceable(224) %3)
          to label %16 unwind label %14

14:                                               ; preds = %13, %.noexc
  %15 = landingpad { ptr, i32 }
          cleanup
  call void @_ZN5boost12basic_formatIcSt11char_traitsIcESaIcEED2Ev(ptr noundef nonnull align 8 dereferenceable(224) %3) #30
  br label %.body

16:                                               ; preds = %13
  call void @_ZN5boost12basic_formatIcSt11char_traitsIcESaIcEED2Ev(ptr noundef nonnull align 8 dereferenceable(224) %3) #30
  call void @llvm.lifetime.end.p0(i64 224, ptr nonnull %3)
  %17 = load ptr, ptr %5, align 8
  %18 = getelementptr inbounds i8, ptr %5, i64 16
  %19 = icmp eq ptr %17, %18
  br i1 %19, label %_ZNKSt7__cxx1112basic_stringIcSt11char_traitsIcESaIcEE11_M_is_localEv.exit.thread.i.i, label %_ZNKSt7__cxx1112basic_stringIcSt11char_traitsIcESaIcEE11_M_is_localEv.exit.i.i

_ZNKSt7__cxx1112basic_stringIcSt11char_traitsIcESaIcEE11_M_is_localEv.exit.thread.i.i: ; preds = %16
  %20 = getelementptr inbounds i8, ptr %5, i64 8
  %21 = load i64, ptr %20, align 8
  %22 = icmp ult i64 %21, 16
  call void @llvm.assume(i1 %22)
  br label %_ZNSt7__cxx1112basic_stringIcSt11char_traitsIcESaIcEED2Ev.exit

_ZNKSt7__cxx1112basic_stringIcSt11char_traitsIcESaIcEE11_M_is_localEv.exit.i.i: ; preds = %16
  call void @_ZdlPv(ptr noundef %17) #33
  br label %_ZNSt7__cxx1112basic_stringIcSt11char_traitsIcESaIcEED2Ev.exit

_ZNSt7__cxx1112basic_stringIcSt11char_traitsIcESaIcEED2Ev.exit: ; preds = %_ZNKSt7__cxx1112basic_stringIcSt11char_traitsIcESaIcEE11_M_is_localEv.exit.thread.i.i, %_ZNKSt7__cxx1112basic_stringIcSt11char_traitsIcESaIcEE11_M_is_localEv.exit.i.i
  call void @_ZNSaIcED2Ev(ptr noundef nonnull align 1 dereferenceable(1) %5) #30
  call void @_ZNSaIcED1Ev(ptr noundef nonnull align 1 dereferenceable(1) %6) #30
  %23 = invoke noundef zeroext i1 @_ZN3nix10pathExistsERKNSt7__cxx1112basic_stringIcSt11char_traitsIcESaIcEEE(ptr noundef nonnull align 8 dereferenceable(32) %0)
          to label %24 unwind label %31

24:                                               ; preds = %_ZNSt7__cxx1112basic_stringIcSt11char_traitsIcESaIcEED2Ev.exit
  br i1 %23, label %25, label %33

25:                                               ; preds = %24
  invoke fastcc void @_ZN3nixL8movePathERKNSt7__cxx1112basic_stringIcSt11char_traitsIcESaIcEEES7_(ptr noundef nonnull align 8 dereferenceable(32) %0, ptr noundef nonnull align 8 dereferenceable(32) %4)
          to label %33 unwind label %31

26:                                               ; preds = %2
  %27 = landingpad { ptr, i32 }
          cleanup
  br label %30

28:                                               ; preds = %9
  %29 = landingpad { ptr, i32 }
          cleanup
  br label %.body

.body:                                            ; preds = %14, %28
  %eh.lpad-body = phi { ptr, i32 } [ %29, %28 ], [ %15, %14 ]
  call void @_ZNSt7__cxx1112basic_stringIcSt11char_traitsIcESaIcEED2Ev(ptr noundef nonnull align 8 dereferenceable(32) %5) #30
  br label %30

30:                                               ; preds = %.body, %26
  %.pn = phi { ptr, i32 } [ %eh.lpad-body, %.body ], [ %27, %26 ]
  call void @_ZNSaIcED1Ev(ptr noundef nonnull align 1 dereferenceable(1) %6) #30
  br label %58

31:                                               ; preds = %49, %25, %_ZNSt7__cxx1112basic_stringIcSt11char_traitsIcESaIcEED2Ev.exit
  %32 = landingpad { ptr, i32 }
          cleanup
  br label %57

33:                                               ; preds = %25, %24
  invoke fastcc void @_ZN3nixL8movePathERKNSt7__cxx1112basic_stringIcSt11char_traitsIcESaIcEEES7_(ptr noundef nonnull align 8 dereferenceable(32) %1, ptr noundef nonnull align 8 dereferenceable(32) %0)
          to label %49 unwind label %34

34:                                               ; preds = %33
  %35 = landingpad { ptr, i32 }
          catch ptr null
  %36 = extractvalue { ptr, i32 } %35, 0
  %37 = call ptr @__cxa_begin_catch(ptr %36) #30
  invoke fastcc void @_ZN3nixL8movePathERKNSt7__cxx1112basic_stringIcSt11char_traitsIcESaIcEEES7_(ptr noundef nonnull align 8 dereferenceable(32) %4, ptr noundef nonnull align 8 dereferenceable(32) %0)
          to label %43 unwind label %38

38:                                               ; preds = %34
  %39 = landingpad { ptr, i32 }
          catch ptr null
  %40 = extractvalue { ptr, i32 } %39, 0
  %41 = call ptr @__cxa_begin_catch(ptr %40) #30
  invoke void @_ZN3nix15ignoreExceptionENS_9VerbosityE(i32 noundef 0)
          to label %42 unwind label %44

42:                                               ; preds = %38
  invoke void @__cxa_end_catch()
          to label %43 unwind label %46

43:                                               ; preds = %42, %34
  invoke void @__cxa_rethrow() #31
          to label %62 unwind label %46

44:                                               ; preds = %38
  %45 = landingpad { ptr, i32 }
          cleanup
  invoke void @__cxa_end_catch()
          to label %48 unwind label %59

46:                                               ; preds = %43, %42
  %47 = landingpad { ptr, i32 }
          cleanup
  br label %48

48:                                               ; preds = %44, %46
  %.pn14 = phi { ptr, i32 } [ %47, %46 ], [ %45, %44 ]
  invoke void @__cxa_end_catch()
          to label %57 unwind label %59

49:                                               ; preds = %33
  invoke void @_ZN3nix10deletePathERKNSt7__cxx1112basic_stringIcSt11char_traitsIcESaIcEEE(ptr noundef nonnull align 8 dereferenceable(32) %4)
          to label %50 unwind label %31

50:                                               ; preds = %49
  %51 = load ptr, ptr %4, align 8
  %52 = getelementptr inbounds i8, ptr %4, i64 16
  %53 = icmp eq ptr %51, %52
  br i1 %53, label %_ZNKSt7__cxx1112basic_stringIcSt11char_traitsIcESaIcEE11_M_is_localEv.exit.thread.i.i20, label %_ZNKSt7__cxx1112basic_stringIcSt11char_traitsIcESaIcEE11_M_is_localEv.exit.i.i19

_ZNKSt7__cxx1112basic_stringIcSt11char_traitsIcESaIcEE11_M_is_localEv.exit.thread.i.i20: ; preds = %50
  %54 = getelementptr inbounds i8, ptr %4, i64 8
  %55 = load i64, ptr %54, align 8
  %56 = icmp ult i64 %55, 16
  call void @llvm.assume(i1 %56)
  br label %_ZNSt7__cxx1112basic_stringIcSt11char_traitsIcESaIcEED2Ev.exit21

_ZNKSt7__cxx1112basic_stringIcSt11char_traitsIcESaIcEE11_M_is_localEv.exit.i.i19: ; preds = %50
  call void @_ZdlPv(ptr noundef %51) #33
  br label %_ZNSt7__cxx1112basic_stringIcSt11char_traitsIcESaIcEED2Ev.exit21

_ZNSt7__cxx1112basic_stringIcSt11char_traitsIcESaIcEED2Ev.exit21: ; preds = %_ZNKSt7__cxx1112basic_stringIcSt11char_traitsIcESaIcEE11_M_is_localEv.exit.thread.i.i20, %_ZNKSt7__cxx1112basic_stringIcSt11char_traitsIcESaIcEE11_M_is_localEv.exit.i.i19
  call void @_ZNSaIcED2Ev(ptr noundef nonnull align 1 dereferenceable(1) %4) #30
  ret void

57:                                               ; preds = %48, %31
  %.pn16 = phi { ptr, i32 } [ %32, %31 ], [ %.pn14, %48 ]
  call void @_ZNSt7__cxx1112basic_stringIcSt11char_traitsIcESaIcEED2Ev(ptr noundef nonnull align 8 dereferenceable(32) %4) #30
  br label %58

58:                                               ; preds = %57, %30
  %.pn16.pn = phi { ptr, i32 } [ %.pn16, %57 ], [ %.pn, %30 ]
  resume { ptr, i32 } %.pn16.pn

59:                                               ; preds = %48, %44
  %60 = landingpad { ptr, i32 }
          catch ptr null
  %61 = extractvalue { ptr, i32 } %60, 0
  call void @__clang_call_terminate(ptr %61) #34
  unreachable

62:                                               ; preds = %43
  unreachable
}